target datalayout = "e-m:e-p270:32:32-p271:32:32-p272:64:64-i64:64-i128:128-f80:128-n8:16:32:64-S128"
target triple = "x86_64-unknown-linux-gnu"

%"struct.absl::crc_internal::CrcMemcpy::ArchSpecificEngines" = type { ptr, ptr }

; Function Attrs: mustprogress nounwind uwtable
define linkonce_odr dso_local void @_ZN4absl12crc_internal15CrcMemcpyEngineC2Ev(ptr noundef nonnull align 8 dereferenceable(8) %this) unnamed_addr #2 comdat align 2 {
entry:
  %this.addr = alloca ptr, align 8
  store ptr %this, ptr %this.addr, align 8
  %this1 = load ptr, ptr %this.addr, align 8
  store ptr getelementptr inbounds ({ [5 x ptr] }, ptr @_ZTVN4absl12crc_internal15CrcMemcpyEngineE, i32 0, i32 0, i32 2), ptr %this1, align 8
  ret void
}

; Function Attrs: mustprogress nounwind uwtable
define linkonce_odr dso_local void @_ZN4absl12crc_internal23FallbackCrcMemcpyEngineC2Ev(ptr noundef nonnull align 8 dereferenceable(8) %this) unnamed_addr #2 comdat align 2 {
entry:
  %this.addr = alloca ptr, align 8
  store ptr %this, ptr %this.addr, align 8
  %this1 = load ptr, ptr %this.addr, align 8
  call void @_ZN4absl12crc_internal15CrcMemcpyEngineC2Ev(ptr noundef nonnull align 8 dereferenceable(8) %this1) #9
  store ptr getelementptr inbounds ({ [5 x ptr] }, ptr @_ZTVN4absl12crc_internal23FallbackCrcMemcpyEngineE, i32 0, i32 0, i32 2), ptr %this1, align 8
  ret void
}

; Function Attrs: mustprogress uwtable
define dso_local { ptr, ptr } @_ZN4absl12crc_internal9CrcMemcpy22GetArchSpecificEnginesEv() #0 align 2 {
entry:
  %retval = alloca %"struct.absl::crc_internal::CrcMemcpy::ArchSpecificEngines", align 8
  %call = call noalias noundef nonnull ptr @_Znwm(i64 noundef 8) #10
  call void @llvm.memset.p0.i64(ptr align 8 %call, i8 0, i64 8, i1 false)
  call void @_ZN4absl12crc_internal23FallbackCrcMemcpyEngineC2Ev(ptr noundef nonnull align 8 dereferenceable(8) %call) #9
  %temporal = getelementptr inbounds %"struct.absl::crc_internal::CrcMemcpy::ArchSpecificEngines", ptr %retval, i32 0, i32 0
  store ptr %call, ptr %temporal, align 8
  %call1 = call noalias noundef nonnull ptr @_Znwm(i64 noundef 8) #10
  call void @llvm.memset.p0.i64(ptr align 8 %call1, i8 0, i64 8, i1 false)
  call void @_ZN4absl12crc_internal23FallbackCrcMemcpyEngineC2Ev(ptr noundef nonnull align 8 dereferenceable(8) %call1) #9
  %non_temporal = getelementptr inbounds %"struct.absl::crc_internal::CrcMemcpy::ArchSpecificEngines", ptr %retval, i32 0, i32 1
  store ptr %call1, ptr %non_temporal, align 8
  %0 = load { ptr, ptr }, ptr %retval, align 8
  ret { ptr, ptr } %0
}