; Function Attrs: mustprogress uwtable
define dso_local { ptr, ptr } @_ZN4absl12crc_internal9CrcMemcpy22GetArchSpecificEnginesEv() local_unnamed_addr #0 align 2 {
entry:
  %call = tail call noalias noundef nonnull dereferenceable(8) ptr @_Znwm(i64 noundef 8) #6
  store ptr getelementptr inbounds ({ [5 x ptr] }, ptr @_ZTVN4absl12crc_internal23FallbackCrcMemcpyEngineE, i64 0, i32 0, i64 2), ptr %call, align 8
  %call1 = tail call noalias noundef nonnull dereferenceable(8) ptr @_Znwm(i64 noundef 8) #6
  store ptr getelementptr inbounds ({ [5 x ptr] }, ptr @_ZTVN4absl12crc_internal23FallbackCrcMemcpyEngineE, i64 0, i32 0, i64 2), ptr %call1, align 8
  %.fca.0.insert = insertvalue { ptr, ptr } poison, ptr %call, 0
  %.fca.1.insert = insertvalue { ptr, ptr } %.fca.0.insert, ptr %call1, 1
  ret { ptr, ptr } %.fca.1.insert
}